target datalayout = "e-m:e-p270:32:32-p271:32:32-p272:64:64-i64:64-i128:128-f80:128-n8:16:32:64-S128"
target triple = "x86_64-pc-linux-gnu"

%"class.open_spiel::solitaire::Card" = type { i32, i32, i32, i8, i32 }

; Function Attrs: mustprogress nounwind uwtable
define noundef zeroext i1 @_ZNK10open_spiel9solitaire4CardeqERKS1_(ptr noundef nonnull align 4 dereferenceable(20) %0, ptr noundef nonnull align 4 dereferenceable(20) %1) #5 align 2 {
  %3 = alloca ptr, align 8
  %4 = alloca ptr, align 8
  store ptr %0, ptr %3, align 8
  store ptr %1, ptr %4, align 8
  %5 = load ptr, ptr %3, align 8
  %6 = getelementptr inbounds nuw %"class.open_spiel::solitaire::Card", ptr %5, i32 0, i32 0
  %7 = load i32, ptr %6, align 4
  %8 = load ptr, ptr %4, align 8
  %9 = getelementptr inbounds nuw %"class.open_spiel::solitaire::Card", ptr %8, i32 0, i32 0
  %10 = load i32, ptr %9, align 4
  %11 = icmp eq i32 %7, %10
  br i1 %11, label %12, label %19

12:                                               ; preds = %2
  %13 = getelementptr inbounds nuw %"class.open_spiel::solitaire::Card", ptr %5, i32 0, i32 1
  %14 = load i32, ptr %13, align 4
  %15 = load ptr, ptr %4, align 8
  %16 = getelementptr inbounds nuw %"class.open_spiel::solitaire::Card", ptr %15, i32 0, i32 1
  %17 = load i32, ptr %16, align 4
  %18 = icmp eq i32 %14, %17
  br label %19

19:                                               ; preds = %12, %2
  %20 = phi i1 [ false, %2 ], [ %18, %12 ]
  ret i1 %20
}